target datalayout = "e-m:e-p270:32:32-p271:32:32-p272:64:64-i64:64-i128:128-f80:128-n8:16:32:64-S128"
target triple = "x86_64-pc-linux-gnu"

%struct.Nwk_Man_t_ = type { ptr, ptr, ptr, ptr, ptr, [5 x i32], i32, ptr, ptr, ptr, ptr, ptr, i32, i32, i32, i32, i32 }
%struct.Nwk_Obj_t_ = type { ptr, ptr, ptr, %union.anon, i32, i32, i32, i32, float, float, float, i32, i32, i32, ptr }
%union.anon = type { ptr }
%struct.Vec_Ptr_t_ = type { i32, i32, ptr }
%struct.If_LibLut_t_ = type { ptr, i32, i32, [33 x float], [33 x [33 x float]] }

@.str = private unnamed_addr constant [62 x i8] c"The max LUT size (%d) is less than the max fanin count (%d).\0A\00", align 1
@.str.3 = private unnamed_addr constant [48 x i8] c"Max delay = %6.2f. Delay trace using %s model:\0A\00", align 1
@.str.4 = private unnamed_addr constant [12 x i8] c"LUT library\00", align 1
@.str.5 = private unnamed_addr constant [11 x i8] c"unit-delay\00", align 1
@.str.6 = private unnamed_addr constant [26 x i8] c"%3d %s : %5d  (%6.2f %%)\0A\00", align 1
@.str.7 = private unnamed_addr constant [2 x i8] c"%\00", align 1
@.str.8 = private unnamed_addr constant [4 x i8] c"lev\00", align 1

; Function Attrs: inlinehint nounwind uwtable
define internal i32 @Nwk_ManNodeNum(ptr noundef %0) #2 {
  %2 = alloca ptr, align 8
  store ptr %0, ptr %2, align 8, !tbaa !3
  %3 = load ptr, ptr %2, align 8, !tbaa !3
  %4 = getelementptr inbounds nuw %struct.Nwk_Man_t_, ptr %3, i32 0, i32 5
  %5 = getelementptr inbounds [5 x i32], ptr %4, i64 0, i64 3
  %6 = load i32, ptr %5, align 4, !tbaa !8
  ret i32 %6
}

; Function Attrs: inlinehint nounwind uwtable
define internal float @Nwk_ObjSlack(ptr noundef %0) #2 {
  %2 = alloca ptr, align 8
  store ptr %0, ptr %2, align 8, !tbaa !18
  %3 = load ptr, ptr %2, align 8, !tbaa !18
  %4 = getelementptr inbounds nuw %struct.Nwk_Obj_t_, ptr %3, i32 0, i32 10
  %5 = load float, ptr %4, align 8, !tbaa !20
  ret float %5
}

; Function Attrs: inlinehint nounwind uwtable
define internal i32 @Nwk_ObjFaninNum(ptr noundef %0) #2 {
  %2 = alloca ptr, align 8
  store ptr %0, ptr %2, align 8, !tbaa !18
  %3 = load ptr, ptr %2, align 8, !tbaa !18
  %4 = getelementptr inbounds nuw %struct.Nwk_Obj_t_, ptr %3, i32 0, i32 11
  %5 = load i32, ptr %4, align 4, !tbaa !38
  ret i32 %5
}

; Function Attrs: inlinehint nounwind uwtable
define internal i32 @Nwk_ObjIsNode(ptr noundef %0) #2 {
  %2 = alloca ptr, align 8
  store ptr %0, ptr %2, align 8, !tbaa !18
  %3 = load ptr, ptr %2, align 8, !tbaa !18
  %4 = getelementptr inbounds nuw %struct.Nwk_Obj_t_, ptr %3, i32 0, i32 4
  %5 = load i32, ptr %4, align 8
  %6 = and i32 %5, 7
  %7 = icmp eq i32 %6, 3
  %8 = zext i1 %7 to i32
  ret i32 %8
}

; Function Attrs: inlinehint nounwind uwtable
define internal ptr @Vec_PtrEntry(ptr noundef %0, i32 noundef %1) #2 {
  %3 = alloca ptr, align 8
  %4 = alloca i32, align 4
  store ptr %0, ptr %3, align 8, !tbaa !29
  store i32 %1, ptr %4, align 4, !tbaa !8
  %5 = load ptr, ptr %3, align 8, !tbaa !29
  %6 = getelementptr inbounds nuw %struct.Vec_Ptr_t_, ptr %5, i32 0, i32 2
  %7 = load ptr, ptr %6, align 8, !tbaa !32
  %8 = load i32, ptr %4, align 4, !tbaa !8
  %9 = sext i32 %8 to i64
  %10 = getelementptr inbounds ptr, ptr %7, i64 %9
  %11 = load ptr, ptr %10, align 8, !tbaa !33
  ret ptr %11
}

; Function Attrs: inlinehint nounwind uwtable
define internal i32 @Vec_PtrSize(ptr noundef %0) #2 {
  %2 = alloca ptr, align 8
  store ptr %0, ptr %2, align 8, !tbaa !29
  %3 = load ptr, ptr %2, align 8, !tbaa !29
  %4 = getelementptr inbounds nuw %struct.Vec_Ptr_t_, ptr %3, i32 0, i32 1
  %5 = load i32, ptr %4, align 4, !tbaa !30
  ret i32 %5
}

; Function Attrs: nounwind uwtable
define void @Nwk_ManDelayTracePrint(ptr noundef %0) #0 {
  %2 = alloca ptr, align 8
  %3 = alloca ptr, align 8
  %4 = alloca ptr, align 8
  %5 = alloca i32, align 4
  %6 = alloca i32, align 4
  %7 = alloca ptr, align 8
  %8 = alloca float, align 4
  %9 = alloca float, align 4
  %10 = alloca float, align 4
  %11 = alloca float, align 4
  %12 = alloca i32, align 4
  store ptr %0, ptr %2, align 8, !tbaa !3
  call void @llvm.lifetime.start.p0(i64 8, ptr %3) #8
  %13 = load ptr, ptr %2, align 8, !tbaa !3
  %14 = getelementptr inbounds nuw %struct.Nwk_Man_t_, ptr %13, i32 0, i32 9
  %15 = load ptr, ptr %14, align 8, !tbaa !47
  store ptr %15, ptr %3, align 8, !tbaa !48
  call void @llvm.lifetime.start.p0(i64 8, ptr %4) #8
  call void @llvm.lifetime.start.p0(i64 4, ptr %5) #8
  call void @llvm.lifetime.start.p0(i64 4, ptr %6) #8
  call void @llvm.lifetime.start.p0(i64 8, ptr %7) #8
  call void @llvm.lifetime.start.p0(i64 4, ptr %8) #8
  call void @llvm.lifetime.start.p0(i64 4, ptr %9) #8
  call void @llvm.lifetime.start.p0(i64 4, ptr %10) #8
  call void @llvm.lifetime.start.p0(i64 4, ptr %11) #8
  %16 = load ptr, ptr %3, align 8, !tbaa !48
  %17 = icmp ne ptr %16, null
  br i1 %17, label %18, label %32

18:                                               ; preds = %1
  %19 = load ptr, ptr %3, align 8, !tbaa !48
  %20 = getelementptr inbounds nuw %struct.If_LibLut_t_, ptr %19, i32 0, i32 1
  %21 = load i32, ptr %20, align 8, !tbaa !64
  %22 = load ptr, ptr %2, align 8, !tbaa !3
  %23 = call i32 @Nwk_ManGetFaninMax(ptr noundef %22)
  %24 = icmp slt i32 %21, %23
  br i1 %24, label %25, label %32

25:                                               ; preds = %18
  %26 = load ptr, ptr %3, align 8, !tbaa !48
  %27 = getelementptr inbounds nuw %struct.If_LibLut_t_, ptr %26, i32 0, i32 1
  %28 = load i32, ptr %27, align 8, !tbaa !64
  %29 = load ptr, ptr %2, align 8, !tbaa !3
  %30 = call i32 @Nwk_ManGetFaninMax(ptr noundef %29)
  %31 = call i32 (ptr, ...) @printf(ptr noundef @.str, i32 noundef %28, i32 noundef %30)
  store i32 1, ptr %12, align 4
  br label %159

32:                                               ; preds = %18, %1
  %33 = load ptr, ptr %3, align 8, !tbaa !48
  %34 = icmp ne ptr %33, null
  br i1 %34, label %35, label %36

35:                                               ; preds = %32
  br label %39

36:                                               ; preds = %32
  %37 = load ptr, ptr %2, align 8, !tbaa !3
  %38 = call i32 @Nwk_ManLevelMax(ptr noundef %37)
  br label %39

39:                                               ; preds = %36, %35
  %40 = phi i32 [ 20, %35 ], [ %38, %36 ]
  %41 = sitofp i32 %40 to float
  store float %41, ptr %10, align 4, !tbaa !40
  %42 = load float, ptr %10, align 4, !tbaa !40
  %43 = fadd float %42, 1.000000e+00
  %44 = fptoui float %43 to i64
  %45 = mul i64 4, %44
  %46 = call noalias ptr @malloc(i64 noundef %45) #9
  store ptr %46, ptr %7, align 8, !tbaa !34
  %47 = load ptr, ptr %7, align 8, !tbaa !34
  %48 = load float, ptr %10, align 4, !tbaa !40
  %49 = fadd float %48, 1.000000e+00
  %50 = fmul float 4.000000e+00, %49
  %51 = fptoui float %50 to i64
  call void @llvm.memset.p0.i64(ptr align 4 %47, i8 0, i64 %51, i1 false)
  %52 = load ptr, ptr %2, align 8, !tbaa !3
  %53 = call float @Nwk_ManDelayTraceLut(ptr noundef %52)
  store float %53, ptr %8, align 4, !tbaa !40
  %54 = load float, ptr %8, align 4, !tbaa !40
  %55 = load float, ptr %10, align 4, !tbaa !40
  %56 = fdiv float %54, %55
  store float %56, ptr %9, align 4, !tbaa !40
  store i32 0, ptr %5, align 4, !tbaa !8
  br label %57

57:                                               ; preds = %103, %39
  %58 = load i32, ptr %5, align 4, !tbaa !8
  %59 = load ptr, ptr %2, align 8, !tbaa !3
  %60 = getelementptr inbounds nuw %struct.Nwk_Man_t_, ptr %59, i32 0, i32 4
  %61 = load ptr, ptr %60, align 8, !tbaa !10
  %62 = call i32 @Vec_PtrSize(ptr noundef %61)
  %63 = icmp slt i32 %58, %62
  br i1 %63, label %64, label %70

64:                                               ; preds = %57
  %65 = load ptr, ptr %2, align 8, !tbaa !3
  %66 = getelementptr inbounds nuw %struct.Nwk_Man_t_, ptr %65, i32 0, i32 4
  %67 = load ptr, ptr %66, align 8, !tbaa !10
  %68 = load i32, ptr %5, align 4, !tbaa !8
  %69 = call ptr @Vec_PtrEntry(ptr noundef %67, i32 noundef %68)
  store ptr %69, ptr %4, align 8, !tbaa !18
  br label %70

70:                                               ; preds = %64, %57
  %71 = phi i1 [ false, %57 ], [ true, %64 ]
  br i1 %71, label %72, label %106

72:                                               ; preds = %70
  %73 = load ptr, ptr %4, align 8, !tbaa !18
  %74 = icmp eq ptr %73, null
  br i1 %74, label %79, label %75

75:                                               ; preds = %72
  %76 = load ptr, ptr %4, align 8, !tbaa !18
  %77 = call i32 @Nwk_ObjIsNode(ptr noundef %76)
  %78 = icmp ne i32 %77, 0
  br i1 %78, label %80, label %79

79:                                               ; preds = %75, %72
  br label %102

80:                                               ; preds = %75
  %81 = load ptr, ptr %4, align 8, !tbaa !18
  %82 = call i32 @Nwk_ObjFaninNum(ptr noundef %81)
  %83 = icmp eq i32 %82, 0
  br i1 %83, label %84, label %85

84:                                               ; preds = %80
  br label %103

85:                                               ; preds = %80
  %86 = load ptr, ptr %4, align 8, !tbaa !18
  %87 = call float @Nwk_ObjSlack(ptr noundef %86)
  %88 = load float, ptr %9, align 4, !tbaa !40
  %89 = fdiv float %87, %88
  store float %89, ptr %11, align 4, !tbaa !40
  %90 = load float, ptr %11, align 4, !tbaa !40
  %91 = load float, ptr %10, align 4, !tbaa !40
  %92 = fcmp ogt float %90, %91
  br i1 %92, label %93, label %94

93:                                               ; preds = %85
  br label %103

94:                                               ; preds = %85
  %95 = load ptr, ptr %7, align 8, !tbaa !34
  %96 = load float, ptr %11, align 4, !tbaa !40
  %97 = fptosi float %96 to i32
  %98 = sext i32 %97 to i64
  %99 = getelementptr inbounds i32, ptr %95, i64 %98
  %100 = load i32, ptr %99, align 4, !tbaa !8
  %101 = add nsw i32 %100, 1
  store i32 %101, ptr %99, align 4, !tbaa !8
  br label %102

102:                                              ; preds = %94, %79
  br label %103

103:                                              ; preds = %102, %93, %84
  %104 = load i32, ptr %5, align 4, !tbaa !8
  %105 = add nsw i32 %104, 1
  store i32 %105, ptr %5, align 4, !tbaa !8
  br label %57, !llvm.loop !73

106:                                              ; preds = %70
  %107 = load float, ptr %8, align 4, !tbaa !40
  %108 = fpext float %107 to double
  %109 = load ptr, ptr %3, align 8, !tbaa !48
  %110 = icmp ne ptr %109, null
  %111 = select i1 %110, ptr @.str.4, ptr @.str.5
  %112 = call i32 (ptr, ...) @printf(ptr noundef @.str.3, double noundef %108, ptr noundef %111)
  store i32 0, ptr %6, align 4, !tbaa !8
  store i32 0, ptr %5, align 4, !tbaa !8
  br label %113

113:                                              ; preds = %149, %106
  %114 = load i32, ptr %5, align 4, !tbaa !8
  %115 = sitofp i32 %114 to float
  %116 = load float, ptr %10, align 4, !tbaa !40
  %117 = fcmp olt float %115, %116
  br i1 %117, label %118, label %152

118:                                              ; preds = %113
  %119 = load ptr, ptr %7, align 8, !tbaa !34
  %120 = load i32, ptr %5, align 4, !tbaa !8
  %121 = sext i32 %120 to i64
  %122 = getelementptr inbounds i32, ptr %119, i64 %121
  %123 = load i32, ptr %122, align 4, !tbaa !8
  %124 = load i32, ptr %6, align 4, !tbaa !8
  %125 = add nsw i32 %124, %123
  store i32 %125, ptr %6, align 4, !tbaa !8
  %126 = load ptr, ptr %3, align 8, !tbaa !48
  %127 = icmp ne ptr %126, null
  br i1 %127, label %128, label %132

128:                                              ; preds = %118
  %129 = load i32, ptr %5, align 4, !tbaa !8
  %130 = add nsw i32 %129, 1
  %131 = mul nsw i32 5, %130
  br label %135

132:                                              ; preds = %118
  %133 = load i32, ptr %5, align 4, !tbaa !8
  %134 = add nsw i32 %133, 1
  br label %135

135:                                              ; preds = %132, %128
  %136 = phi i32 [ %131, %128 ], [ %134, %132 ]
  %137 = load ptr, ptr %3, align 8, !tbaa !48
  %138 = icmp ne ptr %137, null
  %139 = select i1 %138, ptr @.str.7, ptr @.str.8
  %140 = load i32, ptr %6, align 4, !tbaa !8
  %141 = load i32, ptr %6, align 4, !tbaa !8
  %142 = sitofp i32 %141 to double
  %143 = fmul double 1.000000e+02, %142
  %144 = load ptr, ptr %2, align 8, !tbaa !3
  %145 = call i32 @Nwk_ManNodeNum(ptr noundef %144)
  %146 = sitofp i32 %145 to double
  %147 = fdiv double %143, %146
  %148 = call i32 (ptr, ...) @printf(ptr noundef @.str.6, i32 noundef %136, ptr noundef %139, i32 noundef %140, double noundef %147)
  br label %149

149:                                              ; preds = %135
  %150 = load i32, ptr %5, align 4, !tbaa !8
  %151 = add nsw i32 %150, 1
  store i32 %151, ptr %5, align 4, !tbaa !8
  br label %113, !llvm.loop !74

152:                                              ; preds = %113
  %153 = load ptr, ptr %7, align 8, !tbaa !34
  %154 = icmp ne ptr %153, null
  br i1 %154, label %155, label %157

155:                                              ; preds = %152
  %156 = load ptr, ptr %7, align 8, !tbaa !34
  call void @free(ptr noundef %156) #8
  store ptr null, ptr %7, align 8, !tbaa !34
  br label %158

157:                                              ; preds = %152
  br label %158

158:                                              ; preds = %157, %155
  store i32 0, ptr %12, align 4
  br label %159

159:                                              ; preds = %158, %25
  call void @llvm.lifetime.end.p0(i64 4, ptr %11) #8
  call void @llvm.lifetime.end.p0(i64 4, ptr %10) #8
  call void @llvm.lifetime.end.p0(i64 4, ptr %9) #8
  call void @llvm.lifetime.end.p0(i64 4, ptr %8) #8
  call void @llvm.lifetime.end.p0(i64 8, ptr %7) #8
  call void @llvm.lifetime.end.p0(i64 4, ptr %6) #8
  call void @llvm.lifetime.end.p0(i64 4, ptr %5) #8
  call void @llvm.lifetime.end.p0(i64 8, ptr %4) #8
  call void @llvm.lifetime.end.p0(i64 8, ptr %3) #8
  %160 = load i32, ptr %12, align 4
  switch i32 %160, label %162 [
    i32 0, label %161
    i32 1, label %161
  ]

161:                                              ; preds = %159, %159
  ret void

162:                                              ; preds = %159
  unreachable
}