; Function Attrs: nounwind uwtable
define void @Nwk_ManDelayTracePrint(ptr noundef %0) local_unnamed_addr #4 {
  %2 = getelementptr inbounds nuw i8, ptr %0, i64 80
  %3 = load ptr, ptr %2, align 8, !tbaa !40
  %.not = icmp eq ptr %3, null
  br i1 %.not, label %.critedge52, label %4

4:                                                ; preds = %1
  %5 = getelementptr inbounds nuw i8, ptr %3, i64 8
  %6 = load i32, ptr %5, align 8, !tbaa !56
  %7 = tail call i32 @Nwk_ManGetFaninMax(ptr noundef nonnull %0) #12
  %8 = icmp slt i32 %6, %7
  br i1 %8, label %9, label %15

9:                                                ; preds = %4
  %10 = load i32, ptr %5, align 8, !tbaa !56
  %11 = tail call i32 @Nwk_ManGetFaninMax(ptr noundef nonnull %0) #12
  %12 = tail call i32 (ptr, ...) @printf(ptr noundef nonnull dereferenceable(1) @.str, i32 noundef %10, i32 noundef %11)
  br label %82

.critedge52:                                      ; preds = %1
  %13 = tail call i32 @Nwk_ManLevelMax(ptr noundef nonnull %0) #12
  %14 = sitofp i32 %13 to float
  br label %15

15:                                               ; preds = %4, %.critedge52
  %16 = phi float [ %14, %.critedge52 ], [ 2.000000e+01, %4 ]
  %17 = fadd float %16, 1.000000e+00
  %18 = fptoui float %17 to i64
  %19 = shl i64 %18, 2
  %20 = tail call noalias ptr @malloc(i64 noundef %19) #13
  %21 = fmul float %17, 4.000000e+00
  %22 = fptoui float %21 to i64
  tail call void @llvm.memset.p0.i64(ptr align 4 %20, i8 0, i64 %22, i1 false)
  %23 = tail call float @Nwk_ManDelayTraceLut(ptr noundef nonnull %0)
  %24 = fdiv float %23, %16
  %25 = getelementptr inbounds nuw i8, ptr %0, i64 32
  %26 = load ptr, ptr %25, align 8, !tbaa !3
  %27 = getelementptr i8, ptr %26, i64 4
  %.val = load i32, ptr %27, align 4, !tbaa !15
  %28 = icmp sgt i32 %.val, 0
  br i1 %28, label %.lr.ph, label %.critedge

.lr.ph:                                           ; preds = %15
  %29 = getelementptr i8, ptr %26, i64 8
  %.val53 = load ptr, ptr %29, align 8, !tbaa !17
  %wide.trip.count = zext nneg i32 %.val to i64
  br label %30

30:                                               ; preds = %.lr.ph, %50
  %indvars.iv = phi i64 [ 0, %.lr.ph ], [ %indvars.iv.next, %50 ]
  %31 = getelementptr inbounds nuw ptr, ptr %.val53, i64 %indvars.iv
  %32 = load ptr, ptr %31, align 8, !tbaa !18
  %33 = icmp eq ptr %32, null
  br i1 %33, label %50, label %34

34:                                               ; preds = %30
  %35 = getelementptr i8, ptr %32, i64 32
  %.val55 = load i32, ptr %35, align 8
  %36 = and i32 %.val55, 7
  %.not58 = icmp eq i32 %36, 3
  br i1 %.not58, label %37, label %50

37:                                               ; preds = %34
  %38 = getelementptr i8, ptr %32, i64 60
  %.val54 = load i32, ptr %38, align 4, !tbaa !29
  %39 = icmp eq i32 %.val54, 0
  br i1 %39, label %50, label %40

40:                                               ; preds = %37
  %41 = getelementptr i8, ptr %32, i64 56
  %.val56 = load float, ptr %41, align 8, !tbaa !19
  %42 = fdiv float %.val56, %24
  %43 = fcmp ogt float %42, %16
  br i1 %43, label %50, label %44

44:                                               ; preds = %40
  %45 = fptosi float %42 to i32
  %46 = sext i32 %45 to i64
  %47 = getelementptr inbounds i32, ptr %20, i64 %46
  %48 = load i32, ptr %47, align 4, !tbaa !34
  %49 = add nsw i32 %48, 1
  store i32 %49, ptr %47, align 4, !tbaa !34
  br label %50

50:                                               ; preds = %44, %34, %30, %40, %37
  %indvars.iv.next = add nuw nsw i64 %indvars.iv, 1
  %exitcond.not = icmp eq i64 %indvars.iv.next, %wide.trip.count
  br i1 %exitcond.not, label %.critedge, label %30, !llvm.loop !65

.critedge:                                        ; preds = %50, %15
  %51 = fpext float %23 to double
  %52 = select i1 %.not, ptr @.str.5, ptr @.str.4
  %53 = tail call i32 (ptr, ...) @printf(ptr noundef nonnull dereferenceable(1) @.str.3, double noundef %51, ptr noundef nonnull %52)
  %54 = fcmp ogt float %16, 0.000000e+00
  br i1 %54, label %.lr.ph62, label %._crit_edge

.lr.ph62:                                         ; preds = %.critedge
  %55 = select i1 %.not, ptr @.str.8, ptr @.str.7
  %56 = getelementptr i8, ptr %0, i64 52
  br i1 %.not, label %.lr.ph62.split.us, label %.lr.ph62.split

.lr.ph62.split.us:                                ; preds = %.lr.ph62, %.lr.ph62.split.us
  %indvars.iv68 = phi i64 [ %indvars.iv.next69, %.lr.ph62.split.us ], [ 0, %.lr.ph62 ]
  %.04460.us = phi i32 [ %59, %.lr.ph62.split.us ], [ 0, %.lr.ph62 ]
  %57 = getelementptr inbounds nuw i32, ptr %20, i64 %indvars.iv68
  %58 = load i32, ptr %57, align 4, !tbaa !34
  %59 = add nsw i32 %58, %.04460.us
  %indvars.iv.next69 = add nuw nsw i64 %indvars.iv68, 1
  %60 = sitofp i32 %59 to double
  %61 = fmul double %60, 1.000000e+02
  %.val57.us = load i32, ptr %56, align 4, !tbaa !34
  %62 = sitofp i32 %.val57.us to double
  %63 = fdiv double %61, %62
  %64 = trunc nuw nsw i64 %indvars.iv.next69 to i32
  %65 = tail call i32 (ptr, ...) @printf(ptr noundef nonnull dereferenceable(1) @.str.6, i32 noundef %64, ptr noundef nonnull %55, i32 noundef %59, double noundef %63)
  %66 = uitofp nneg i32 %64 to float
  %67 = fcmp ogt float %16, %66
  br i1 %67, label %.lr.ph62.split.us, label %._crit_edge.thread, !llvm.loop !66

.lr.ph62.split:                                   ; preds = %.lr.ph62, %.lr.ph62.split
  %indvars.iv65 = phi i64 [ %indvars.iv.next66, %.lr.ph62.split ], [ 0, %.lr.ph62 ]
  %.04460 = phi i32 [ %70, %.lr.ph62.split ], [ 0, %.lr.ph62 ]
  %68 = getelementptr inbounds nuw i32, ptr %20, i64 %indvars.iv65
  %69 = load i32, ptr %68, align 4, !tbaa !34
  %70 = add nsw i32 %69, %.04460
  %71 = trunc nuw nsw i64 %indvars.iv65 to i32
  %72 = mul i32 %71, 5
  %73 = add i32 %72, 5
  %indvars.iv.next66 = add nuw nsw i64 %indvars.iv65, 1
  %74 = sitofp i32 %70 to double
  %75 = fmul double %74, 1.000000e+02
  %.val57 = load i32, ptr %56, align 4, !tbaa !34
  %76 = sitofp i32 %.val57 to double
  %77 = fdiv double %75, %76
  %78 = tail call i32 (ptr, ...) @printf(ptr noundef nonnull dereferenceable(1) @.str.6, i32 noundef %73, ptr noundef nonnull %55, i32 noundef %70, double noundef %77)
  %79 = trunc nuw i64 %indvars.iv.next66 to i32
  %80 = uitofp nneg i32 %79 to float
  %81 = fcmp ogt float %16, %80
  br i1 %81, label %.lr.ph62.split, label %._crit_edge.thread, !llvm.loop !66

._crit_edge:                                      ; preds = %.critedge
  %.not49 = icmp eq ptr %20, null
  br i1 %.not49, label %82, label %._crit_edge.thread

._crit_edge.thread:                               ; preds = %.lr.ph62.split, %.lr.ph62.split.us, %._crit_edge
  tail call void @free(ptr noundef nonnull %20) #12
  br label %82

82:                                               ; preds = %._crit_edge.thread, %._crit_edge, %9
  ret void
}